; Function Attrs: mustprogress uwtable
define void @capture_info_ui_destroy(ptr nocapture noundef %0) local_unnamed_addr #0 {
  %2 = load ptr, ptr %0, align 8
  %3 = tail call noundef ptr @_ZNK11QMetaObject4castEPK7QObject(ptr noundef nonnull align 8 dereferenceable(56) @_ZN17CaptureInfoDialog16staticMetaObjectE, ptr noundef %2)
  %.not = icmp eq ptr %3, null
  br i1 %.not, label %8, label %4

4:                                                ; preds = %1
  store ptr null, ptr %0, align 8
  %5 = load ptr, ptr %3, align 8
  %6 = getelementptr inbounds i8, ptr %5, i64 32
  %7 = load ptr, ptr %6, align 8
  tail call void %7(ptr noundef nonnull align 8 dereferenceable(112) %3) #22
  br label %8

8:                                                ; preds = %1, %4
  ret void
}